; Function Attrs: mustprogress uwtable
define noundef nonnull align 8 dereferenceable(200) ptr @_ZNK6icu_7522CompoundTransliterator12getTargetSetERNS_10UnicodeSetE(ptr nocapture noundef nonnull readonly align 8 dereferenceable(104) %this, ptr noundef nonnull returned align 8 dereferenceable(200) %result) unnamed_addr #1 align 2 personality ptr @__gxx_personality_v0 {
entry:
  %set = alloca %"class.icu_75::UnicodeSet", align 8
  call void @_ZN6icu_7510UnicodeSetC1Ev(ptr noundef nonnull align 8 dereferenceable(200) %set)
  %call = invoke noundef nonnull align 8 dereferenceable(200) ptr @_ZN6icu_7510UnicodeSet5clearEv(ptr noundef nonnull align 8 dereferenceable(200) %result)
          to label %for.cond.preheader unwind label %lpad.loopexit.split-lp

for.cond.preheader:                               ; preds = %entry
  %count = getelementptr inbounds i8, ptr %this, i64 96
  %0 = load i32, ptr %count, align 8
  %cmp7 = icmp sgt i32 %0, 0
  br i1 %cmp7, label %for.body.lr.ph, label %for.end

for.body.lr.ph:                                   ; preds = %for.cond.preheader
  %trans = getelementptr inbounds i8, ptr %this, i64 88
  br label %for.body

for.body:                                         ; preds = %for.body.lr.ph, %for.inc
  %indvars.iv = phi i64 [ 0, %for.body.lr.ph ], [ %indvars.iv.next, %for.inc ]
  %1 = load ptr, ptr %trans, align 8
  %arrayidx = getelementptr inbounds ptr, ptr %1, i64 %indvars.iv
  %2 = load ptr, ptr %arrayidx, align 8
  %vtable = load ptr, ptr %2, align 8
  %vfn = getelementptr inbounds i8, ptr %vtable, i64 128
  %3 = load ptr, ptr %vfn, align 8
  %call3 = invoke noundef nonnull align 8 dereferenceable(200) ptr %3(ptr noundef nonnull align 8 dereferenceable(84) %2, ptr noundef nonnull align 8 dereferenceable(200) %set)
          to label %invoke.cont2 unwind label %lpad.loopexit

invoke.cont2:                                     ; preds = %for.body
  %call5 = invoke noundef nonnull align 8 dereferenceable(200) ptr @_ZN6icu_7510UnicodeSet6addAllERKS0_(ptr noundef nonnull align 8 dereferenceable(200) %result, ptr noundef nonnull align 8 dereferenceable(200) %call3)
          to label %for.inc unwind label %lpad.loopexit

for.inc:                                          ; preds = %invoke.cont2
  %indvars.iv.next = add nuw nsw i64 %indvars.iv, 1
  %4 = load i32, ptr %count, align 8
  %5 = sext i32 %4 to i64
  %cmp = icmp slt i64 %indvars.iv.next, %5
  br i1 %cmp, label %for.body, label %for.end, !llvm.loop !24

lpad.loopexit:                                    ; preds = %for.body, %invoke.cont2
  %lpad.loopexit5 = landingpad { ptr, i32 }
          cleanup
  br label %lpad

lpad.loopexit.split-lp:                           ; preds = %entry
  %lpad.loopexit.split-lp6 = landingpad { ptr, i32 }
          cleanup
  br label %lpad

lpad:                                             ; preds = %lpad.loopexit.split-lp, %lpad.loopexit
  %lpad.phi = phi { ptr, i32 } [ %lpad.loopexit5, %lpad.loopexit ], [ %lpad.loopexit.split-lp6, %lpad.loopexit.split-lp ]
  call void @_ZN6icu_7510UnicodeSetD1Ev(ptr noundef nonnull align 8 dereferenceable(200) %set) #13
  resume { ptr, i32 } %lpad.phi

for.end:                                          ; preds = %for.inc, %for.cond.preheader
  call void @_ZN6icu_7510UnicodeSetD1Ev(ptr noundef nonnull align 8 dereferenceable(200) %set) #13
  ret ptr %result
}